; Function Attrs: mustprogress noreturn uwtable
define hidden void @_ZN6Assimp11HMPImporter19InternReadFile_HMP4Ev(ptr nonnull readnone align 8 captures(none) %0) local_unnamed_addr #9 align 2 personality ptr @__gxx_personality_v0 {
  %2 = tail call ptr @__cxa_allocate_exception(i64 16) #22
  invoke void @_ZN17DeadlyImportErrorC2EPKc(ptr noundef nonnull align 8 dereferenceable(16) %2, ptr noundef nonnull @.str.22)
          to label %3 unwind label %4

3:                                                ; preds = %1
  tail call void @__cxa_throw(ptr nonnull %2, ptr nonnull @_ZTI17DeadlyImportError, ptr nonnull @_ZNSt13runtime_errorD2Ev) #23
  unreachable

4:                                                ; preds = %1
  %5 = landingpad { ptr, i32 }
          cleanup
  tail call void @__cxa_free_exception(ptr nonnull %2) #22
  resume { ptr, i32 } %5
}